; Function Attrs: uwtable
define noundef nonnull ptr @_ZThn16_N16EditAlignFactory11getEditToolEPK7QAction(ptr nocapture noundef readnone %0, ptr nocapture noundef readnone %1) unnamed_addr #12 align 2 personality ptr @__gxx_personality_v0 {
  %3 = tail call noalias noundef nonnull dereferenceable(1056) ptr @_Znwm(i64 noundef 1056) #20
  invoke void @_ZN15EditAlignPluginC1Ev(ptr noundef nonnull align 8 dereferenceable(1056) %3)
          to label %_ZN16EditAlignFactory11getEditToolEPK7QAction.exit unwind label %4

4:                                                ; preds = %2
  %5 = landingpad { ptr, i32 }
          cleanup
  tail call void @_ZdlPv(ptr noundef nonnull %3) #16
  resume { ptr, i32 } %5

_ZN16EditAlignFactory11getEditToolEPK7QAction.exit: ; preds = %2
  %6 = getelementptr inbounds i8, ptr %3, i64 16
  ret ptr %6
}